target datalayout = "e-m:e-p270:32:32-p271:32:32-p272:64:64-i64:64-i128:128-f80:128-n8:16:32:64-S128"
target triple = "x86_64-pc-linux-gnu"

@mpd_bits = external hidden constant [0 x i64], align 8
@mpd_free = external hidden global ptr, align 8

; Function Attrs: inlinehint nounwind uwtable
define internal void @_mpd_div_words(ptr noundef %0, ptr noundef %1, i64 noundef %2, i64 noundef %3, i64 noundef %4) #2 {
  %6 = alloca ptr, align 8
  %7 = alloca ptr, align 8
  %8 = alloca i64, align 8
  %9 = alloca i64, align 8
  %10 = alloca i64, align 8
  %11 = alloca i128, align 16
  store ptr %0, ptr %6, align 8, !tbaa !3
  store ptr %1, ptr %7, align 8, !tbaa !3
  store i64 %2, ptr %8, align 8, !tbaa !8
  store i64 %3, ptr %9, align 8, !tbaa !8
  store i64 %4, ptr %10, align 8, !tbaa !8
  call void @llvm.lifetime.start.p0(i64 16, ptr %11) #7
  %12 = load i64, ptr %8, align 8, !tbaa !8
  %13 = zext i64 %12 to i128
  %14 = shl i128 %13, 64
  %15 = load i64, ptr %9, align 8, !tbaa !8
  %16 = zext i64 %15 to i128
  %17 = add i128 %14, %16
  store i128 %17, ptr %11, align 16, !tbaa !29
  %18 = load i128, ptr %11, align 16, !tbaa !29
  %19 = load i64, ptr %10, align 8, !tbaa !8
  %20 = zext i64 %19 to i128
  %21 = udiv i128 %18, %20
  %22 = trunc i128 %21 to i64
  %23 = load ptr, ptr %6, align 8, !tbaa !3
  store i64 %22, ptr %23, align 8, !tbaa !8
  %24 = load i128, ptr %11, align 16, !tbaa !29
  %25 = load ptr, ptr %6, align 8, !tbaa !3
  %26 = load i64, ptr %25, align 8, !tbaa !8
  %27 = zext i64 %26 to i128
  %28 = load i64, ptr %10, align 8, !tbaa !8
  %29 = zext i64 %28 to i128
  %30 = mul i128 %27, %29
  %31 = sub i128 %24, %30
  %32 = trunc i128 %31 to i64
  %33 = load ptr, ptr %7, align 8, !tbaa !3
  store i64 %32, ptr %33, align 8, !tbaa !8
  call void @llvm.lifetime.end.p0(i64 16, ptr %11) #7
  ret void
}

; Function Attrs: inlinehint nounwind uwtable
define internal void @_mpd_mul_words(ptr noundef %0, ptr noundef %1, i64 noundef %2, i64 noundef %3) #2 {
  %5 = alloca ptr, align 8
  %6 = alloca ptr, align 8
  %7 = alloca i64, align 8
  %8 = alloca i64, align 8
  %9 = alloca i128, align 16
  store ptr %0, ptr %5, align 8, !tbaa !3
  store ptr %1, ptr %6, align 8, !tbaa !3
  store i64 %2, ptr %7, align 8, !tbaa !8
  store i64 %3, ptr %8, align 8, !tbaa !8
  call void @llvm.lifetime.start.p0(i64 16, ptr %9) #7
  %10 = load i64, ptr %7, align 8, !tbaa !8
  %11 = zext i64 %10 to i128
  %12 = load i64, ptr %8, align 8, !tbaa !8
  %13 = zext i64 %12 to i128
  %14 = mul i128 %11, %13
  store i128 %14, ptr %9, align 16, !tbaa !29
  %15 = load i128, ptr %9, align 16, !tbaa !29
  %16 = lshr i128 %15, 64
  %17 = trunc i128 %16 to i64
  %18 = load ptr, ptr %5, align 8, !tbaa !3
  store i64 %17, ptr %18, align 8, !tbaa !8
  %19 = load i128, ptr %9, align 16, !tbaa !29
  %20 = trunc i128 %19 to i64
  %21 = load ptr, ptr %6, align 8, !tbaa !3
  store i64 %20, ptr %21, align 8, !tbaa !8
  call void @llvm.lifetime.end.p0(i64 16, ptr %9) #7
  ret void
}

; Function Attrs: inlinehint nounwind uwtable
define internal i64 @mulmod_size_t(i64 noundef %0, i64 noundef %1, i64 noundef %2) #2 {
  %4 = alloca i64, align 8
  %5 = alloca i64, align 8
  %6 = alloca i64, align 8
  %7 = alloca i64, align 8
  %8 = alloca i64, align 8
  %9 = alloca i64, align 8
  %10 = alloca i64, align 8
  store i64 %0, ptr %4, align 8, !tbaa !8
  store i64 %1, ptr %5, align 8, !tbaa !8
  store i64 %2, ptr %6, align 8, !tbaa !8
  call void @llvm.lifetime.start.p0(i64 8, ptr %7) #7
  call void @llvm.lifetime.start.p0(i64 8, ptr %8) #7
  call void @llvm.lifetime.start.p0(i64 8, ptr %9) #7
  call void @llvm.lifetime.start.p0(i64 8, ptr %10) #7
  %11 = load i64, ptr %4, align 8, !tbaa !8
  %12 = load i64, ptr %5, align 8, !tbaa !8
  call void @_mpd_mul_words(ptr noundef %7, ptr noundef %8, i64 noundef %11, i64 noundef %12)
  %13 = load i64, ptr %7, align 8, !tbaa !8
  %14 = load i64, ptr %8, align 8, !tbaa !8
  %15 = load i64, ptr %6, align 8, !tbaa !8
  call void @_mpd_div_words(ptr noundef %9, ptr noundef %10, i64 noundef %13, i64 noundef %14, i64 noundef %15)
  %16 = load i64, ptr %10, align 8, !tbaa !8
  call void @llvm.lifetime.end.p0(i64 8, ptr %10) #7
  call void @llvm.lifetime.end.p0(i64 8, ptr %9) #7
  call void @llvm.lifetime.end.p0(i64 8, ptr %8) #7
  call void @llvm.lifetime.end.p0(i64 8, ptr %7) #7
  ret i64 %16
}

; Function Attrs: inlinehint nounwind uwtable
define internal void @pointerswap(ptr noundef %0, ptr noundef %1) #2 {
  %3 = alloca ptr, align 8
  %4 = alloca ptr, align 8
  %5 = alloca ptr, align 8
  store ptr %0, ptr %3, align 8, !tbaa !33
  store ptr %1, ptr %4, align 8, !tbaa !33
  call void @llvm.lifetime.start.p0(i64 8, ptr %5) #7
  %6 = load ptr, ptr %4, align 8, !tbaa !33
  %7 = load ptr, ptr %6, align 8, !tbaa !3
  store ptr %7, ptr %5, align 8, !tbaa !3
  %8 = load ptr, ptr %3, align 8, !tbaa !33
  %9 = load ptr, ptr %8, align 8, !tbaa !3
  %10 = load ptr, ptr %4, align 8, !tbaa !33
  store ptr %9, ptr %10, align 8, !tbaa !3
  %11 = load ptr, ptr %5, align 8, !tbaa !3
  %12 = load ptr, ptr %3, align 8, !tbaa !33
  store ptr %11, ptr %12, align 8, !tbaa !3
  call void @llvm.lifetime.end.p0(i64 8, ptr %5) #7
  ret void
}

; Function Attrs: nounwind uwtable
define internal i32 @swap_halfrows_pow2(ptr noundef %0, i64 noundef %1, i64 noundef %2, i32 noundef %3) #0 {
  %5 = alloca i32, align 4
  %6 = alloca ptr, align 8
  %7 = alloca i64, align 8
  %8 = alloca i64, align 8
  %9 = alloca i32, align 4
  %10 = alloca [4096 x i64], align 16
  %11 = alloca [4096 x i64], align 16
  %12 = alloca ptr, align 8
  %13 = alloca ptr, align 8
  %14 = alloca ptr, align 8
  %15 = alloca ptr, align 8
  %16 = alloca i64, align 8
  %17 = alloca i64, align 8
  %18 = alloca i64, align 8
  %19 = alloca i64, align 8
  %20 = alloca i64, align 8
  %21 = alloca i64, align 8
  %22 = alloca i64, align 8
  %23 = alloca i64, align 8
  %24 = alloca i64, align 8
  %25 = alloca i32, align 4
  store ptr %0, ptr %6, align 8, !tbaa !3
  store i64 %1, ptr %7, align 8, !tbaa !8
  store i64 %2, ptr %8, align 8, !tbaa !8
  store i32 %3, ptr %9, align 4, !tbaa !23
  call void @llvm.lifetime.start.p0(i64 32768, ptr %10) #7
  call void @llvm.lifetime.start.p0(i64 32768, ptr %11) #7
  call void @llvm.lifetime.start.p0(i64 8, ptr %12) #7
  call void @llvm.lifetime.start.p0(i64 8, ptr %13) #7
  call void @llvm.lifetime.start.p0(i64 8, ptr %14) #7
  call void @llvm.lifetime.start.p0(i64 8, ptr %15) #7
  call void @llvm.lifetime.start.p0(i64 8, ptr %16) #7
  call void @llvm.lifetime.start.p0(i64 8, ptr %17) #7
  store i64 4096, ptr %17, align 8, !tbaa !8
  call void @llvm.lifetime.start.p0(i64 8, ptr %18) #7
  call void @llvm.lifetime.start.p0(i64 8, ptr %19) #7
  call void @llvm.lifetime.start.p0(i64 8, ptr %20) #7
  call void @llvm.lifetime.start.p0(i64 8, ptr %21) #7
  call void @llvm.lifetime.start.p0(i64 8, ptr %22) #7
  store i64 0, ptr %22, align 8, !tbaa !8
  call void @llvm.lifetime.start.p0(i64 8, ptr %23) #7
  call void @llvm.lifetime.start.p0(i64 8, ptr %24) #7
  %26 = load i32, ptr %9, align 4, !tbaa !23
  %27 = icmp eq i32 %26, 0
  br i1 %27, label %28, label %30

28:                                               ; preds = %4
  %29 = load i64, ptr %7, align 8, !tbaa !8
  store i64 %29, ptr %22, align 8, !tbaa !8
  br label %36

30:                                               ; preds = %4
  %31 = load i32, ptr %9, align 4, !tbaa !23
  %32 = icmp eq i32 %31, 1
  br i1 %32, label %33, label %34

33:                                               ; preds = %30
  store i64 2, ptr %22, align 8, !tbaa !8
  br label %35

34:                                               ; preds = %30
  call void @abort() #8
  unreachable

35:                                               ; preds = %33
  br label %36

36:                                               ; preds = %35, %28
  %37 = load i64, ptr %8, align 8, !tbaa !8
  %38 = sub i64 %37, 1
  store i64 %38, ptr %21, align 8, !tbaa !8
  %39 = load i64, ptr %7, align 8, !tbaa !8
  store i64 %39, ptr %20, align 8, !tbaa !8
  store i64 64, ptr %16, align 8, !tbaa !8
  %40 = load i64, ptr %20, align 8, !tbaa !8
  %41 = udiv i64 %40, 8
  %42 = add i64 %41, 1
  %43 = call ptr @mpd_calloc(i64 noundef %42, i64 noundef 8)
  store ptr %43, ptr %15, align 8, !tbaa !3
  %44 = icmp eq ptr %43, null
  br i1 %44, label %45, label %46

45:                                               ; preds = %36
  store i32 0, ptr %5, align 4
  store i32 1, ptr %25, align 4
  br label %181

46:                                               ; preds = %36
  store i64 1, ptr %19, align 8, !tbaa !8
  br label %47

47:                                               ; preds = %175, %46
  %48 = load i64, ptr %19, align 8, !tbaa !8
  %49 = load i64, ptr %20, align 8, !tbaa !8
  %50 = icmp ule i64 %48, %49
  br i1 %50, label %51, label %178

51:                                               ; preds = %47
  %52 = load ptr, ptr %15, align 8, !tbaa !3
  %53 = load i64, ptr %19, align 8, !tbaa !8
  %54 = load i64, ptr %16, align 8, !tbaa !8
  %55 = udiv i64 %53, %54
  %56 = getelementptr i64, ptr %52, i64 %55
  %57 = load i64, ptr %56, align 8, !tbaa !8
  %58 = load i64, ptr %19, align 8, !tbaa !8
  %59 = load i64, ptr %16, align 8, !tbaa !8
  %60 = urem i64 %58, %59
  %61 = getelementptr [0 x i64], ptr @mpd_bits, i64 0, i64 %60
  %62 = load i64, ptr %61, align 8, !tbaa !8
  %63 = and i64 %57, %62
  %64 = icmp ne i64 %63, 0
  br i1 %64, label %65, label %66

65:                                               ; preds = %51
  br label %175

66:                                               ; preds = %51
  %67 = getelementptr inbounds [4096 x i64], ptr %10, i64 0, i64 0
  store ptr %67, ptr %12, align 8, !tbaa !3
  %68 = getelementptr inbounds [4096 x i64], ptr %11, i64 0, i64 0
  store ptr %68, ptr %13, align 8, !tbaa !3
  store i64 0, ptr %23, align 8, !tbaa !8
  br label %69

69:                                               ; preds = %170, %66
  %70 = load i64, ptr %23, align 8, !tbaa !8
  %71 = load i64, ptr %8, align 8, !tbaa !8
  %72 = udiv i64 %71, 2
  %73 = icmp ult i64 %70, %72
  br i1 %73, label %74, label %174

74:                                               ; preds = %69
  %75 = load i64, ptr %23, align 8, !tbaa !8
  %76 = load i64, ptr %17, align 8, !tbaa !8
  %77 = add i64 %75, %76
  %78 = load i64, ptr %8, align 8, !tbaa !8
  %79 = udiv i64 %78, 2
  %80 = icmp ult i64 %77, %79
  br i1 %80, label %81, label %83

81:                                               ; preds = %74
  %82 = load i64, ptr %17, align 8, !tbaa !8
  br label %88

83:                                               ; preds = %74
  %84 = load i64, ptr %8, align 8, !tbaa !8
  %85 = udiv i64 %84, 2
  %86 = load i64, ptr %23, align 8, !tbaa !8
  %87 = sub i64 %85, %86
  br label %88

88:                                               ; preds = %83, %81
  %89 = phi i64 [ %82, %81 ], [ %87, %83 ]
  store i64 %89, ptr %18, align 8, !tbaa !8
  %90 = load ptr, ptr %6, align 8, !tbaa !3
  %91 = load i64, ptr %19, align 8, !tbaa !8
  %92 = load i64, ptr %8, align 8, !tbaa !8
  %93 = mul i64 %91, %92
  %94 = udiv i64 %93, 2
  %95 = getelementptr i64, ptr %90, i64 %94
  store ptr %95, ptr %14, align 8, !tbaa !3
  %96 = load ptr, ptr %12, align 8, !tbaa !3
  %97 = load ptr, ptr %14, align 8, !tbaa !3
  %98 = load i64, ptr %23, align 8, !tbaa !8
  %99 = getelementptr i64, ptr %97, i64 %98
  %100 = load i64, ptr %18, align 8, !tbaa !8
  %101 = mul i64 %100, 8
  call void @llvm.memcpy.p0.p0.i64(ptr align 8 %96, ptr align 8 %99, i64 %101, i1 false)
  call void @pointerswap(ptr noundef %12, ptr noundef %13)
  %102 = load i64, ptr %19, align 8, !tbaa !8
  %103 = load i64, ptr %22, align 8, !tbaa !8
  %104 = load i64, ptr %21, align 8, !tbaa !8
  %105 = call i64 @mulmod_size_t(i64 noundef %102, i64 noundef %103, i64 noundef %104)
  store i64 %105, ptr %24, align 8, !tbaa !8
  %106 = load ptr, ptr %6, align 8, !tbaa !3
  %107 = load i64, ptr %24, align 8, !tbaa !8
  %108 = load i64, ptr %8, align 8, !tbaa !8
  %109 = mul i64 %107, %108
  %110 = udiv i64 %109, 2
  %111 = getelementptr i64, ptr %106, i64 %110
  store ptr %111, ptr %14, align 8, !tbaa !3
  br label %112

112:                                              ; preds = %116, %88
  %113 = load i64, ptr %24, align 8, !tbaa !8
  %114 = load i64, ptr %19, align 8, !tbaa !8
  %115 = icmp ne i64 %113, %114
  br i1 %115, label %116, label %151

116:                                              ; preds = %112
  %117 = load ptr, ptr %12, align 8, !tbaa !3
  %118 = load ptr, ptr %14, align 8, !tbaa !3
  %119 = load i64, ptr %23, align 8, !tbaa !8
  %120 = getelementptr i64, ptr %118, i64 %119
  %121 = load i64, ptr %18, align 8, !tbaa !8
  %122 = mul i64 %121, 8
  call void @llvm.memcpy.p0.p0.i64(ptr align 8 %117, ptr align 8 %120, i64 %122, i1 false)
  %123 = load ptr, ptr %14, align 8, !tbaa !3
  %124 = load i64, ptr %23, align 8, !tbaa !8
  %125 = getelementptr i64, ptr %123, i64 %124
  %126 = load ptr, ptr %13, align 8, !tbaa !3
  %127 = load i64, ptr %18, align 8, !tbaa !8
  %128 = mul i64 %127, 8
  call void @llvm.memcpy.p0.p0.i64(ptr align 8 %125, ptr align 8 %126, i64 %128, i1 false)
  call void @pointerswap(ptr noundef %12, ptr noundef %13)
  %129 = load i64, ptr %24, align 8, !tbaa !8
  %130 = load i64, ptr %16, align 8, !tbaa !8
  %131 = urem i64 %129, %130
  %132 = getelementptr [0 x i64], ptr @mpd_bits, i64 0, i64 %131
  %133 = load i64, ptr %132, align 8, !tbaa !8
  %134 = load ptr, ptr %15, align 8, !tbaa !3
  %135 = load i64, ptr %24, align 8, !tbaa !8
  %136 = load i64, ptr %16, align 8, !tbaa !8
  %137 = udiv i64 %135, %136
  %138 = getelementptr i64, ptr %134, i64 %137
  %139 = load i64, ptr %138, align 8, !tbaa !8
  %140 = or i64 %139, %133
  store i64 %140, ptr %138, align 8, !tbaa !8
  %141 = load i64, ptr %24, align 8, !tbaa !8
  %142 = load i64, ptr %22, align 8, !tbaa !8
  %143 = load i64, ptr %21, align 8, !tbaa !8
  %144 = call i64 @mulmod_size_t(i64 noundef %141, i64 noundef %142, i64 noundef %143)
  store i64 %144, ptr %24, align 8, !tbaa !8
  %145 = load ptr, ptr %6, align 8, !tbaa !3
  %146 = load i64, ptr %24, align 8, !tbaa !8
  %147 = load i64, ptr %8, align 8, !tbaa !8
  %148 = mul i64 %146, %147
  %149 = udiv i64 %148, 2
  %150 = getelementptr i64, ptr %145, i64 %149
  store ptr %150, ptr %14, align 8, !tbaa !3
  br label %112, !llvm.loop !25

151:                                              ; preds = %112
  %152 = load ptr, ptr %14, align 8, !tbaa !3
  %153 = load i64, ptr %23, align 8, !tbaa !8
  %154 = getelementptr i64, ptr %152, i64 %153
  %155 = load ptr, ptr %13, align 8, !tbaa !3
  %156 = load i64, ptr %18, align 8, !tbaa !8
  %157 = mul i64 %156, 8
  call void @llvm.memcpy.p0.p0.i64(ptr align 8 %154, ptr align 8 %155, i64 %157, i1 false)
  %158 = load i64, ptr %19, align 8, !tbaa !8
  %159 = load i64, ptr %16, align 8, !tbaa !8
  %160 = urem i64 %158, %159
  %161 = getelementptr [0 x i64], ptr @mpd_bits, i64 0, i64 %160
  %162 = load i64, ptr %161, align 8, !tbaa !8
  %163 = load ptr, ptr %15, align 8, !tbaa !3
  %164 = load i64, ptr %19, align 8, !tbaa !8
  %165 = load i64, ptr %16, align 8, !tbaa !8
  %166 = udiv i64 %164, %165
  %167 = getelementptr i64, ptr %163, i64 %166
  %168 = load i64, ptr %167, align 8, !tbaa !8
  %169 = or i64 %168, %162
  store i64 %169, ptr %167, align 8, !tbaa !8
  br label %170

170:                                              ; preds = %151
  %171 = load i64, ptr %17, align 8, !tbaa !8
  %172 = load i64, ptr %23, align 8, !tbaa !8
  %173 = add i64 %172, %171
  store i64 %173, ptr %23, align 8, !tbaa !8
  br label %69, !llvm.loop !26

174:                                              ; preds = %69
  br label %175

175:                                              ; preds = %174, %65
  %176 = load i64, ptr %19, align 8, !tbaa !8
  %177 = add i64 %176, 2
  store i64 %177, ptr %19, align 8, !tbaa !8
  br label %47, !llvm.loop !27

178:                                              ; preds = %47
  %179 = load ptr, ptr @mpd_free, align 8, !tbaa !28
  %180 = load ptr, ptr %15, align 8, !tbaa !3
  call void %179(ptr noundef %180)
  store i32 1, ptr %5, align 4
  store i32 1, ptr %25, align 4
  br label %181

181:                                              ; preds = %178, %45
  call void @llvm.lifetime.end.p0(i64 8, ptr %24) #7
  call void @llvm.lifetime.end.p0(i64 8, ptr %23) #7
  call void @llvm.lifetime.end.p0(i64 8, ptr %22) #7
  call void @llvm.lifetime.end.p0(i64 8, ptr %21) #7
  call void @llvm.lifetime.end.p0(i64 8, ptr %20) #7
  call void @llvm.lifetime.end.p0(i64 8, ptr %19) #7
  call void @llvm.lifetime.end.p0(i64 8, ptr %18) #7
  call void @llvm.lifetime.end.p0(i64 8, ptr %17) #7
  call void @llvm.lifetime.end.p0(i64 8, ptr %16) #7
  call void @llvm.lifetime.end.p0(i64 8, ptr %15) #7
  call void @llvm.lifetime.end.p0(i64 8, ptr %14) #7
  call void @llvm.lifetime.end.p0(i64 8, ptr %13) #7
  call void @llvm.lifetime.end.p0(i64 8, ptr %12) #7
  call void @llvm.lifetime.end.p0(i64 32768, ptr %11) #7
  call void @llvm.lifetime.end.p0(i64 32768, ptr %10) #7
  %182 = load i32, ptr %5, align 4
  ret i32 %182
}