; Function Attrs: nounwind uwtable
define internal fastcc range(i32 0, 2) i32 @swap_halfrows_pow2(ptr noundef captures(none) %0, i64 noundef %1, i64 noundef %2, i32 noundef range(i32 0, 2) %3) unnamed_addr #2 {
  %5 = alloca [4096 x i64], align 16
  %6 = alloca [4096 x i64], align 16
  call void @llvm.lifetime.start.p0(i64 32768, ptr nonnull %5) #13
  call void @llvm.lifetime.start.p0(i64 32768, ptr nonnull %6) #13
  %7 = icmp eq i32 %3, 0
  %8 = add i64 %2, -1
  %9 = lshr i64 %1, 3
  %10 = add nuw nsw i64 %9, 1
  %11 = tail call ptr @mpd_calloc(i64 noundef %10, i64 noundef 8) #13
  %12 = icmp eq ptr %11, null
  br i1 %12, label %70, label %.preheader85

.preheader85:                                     ; preds = %4
  %.not100 = icmp eq i64 %1, 0
  br i1 %.not100, label %._crit_edge104, label %.lr.ph103

.lr.ph103:                                        ; preds = %.preheader85
  %13 = lshr i64 %2, 1
  %.not110 = icmp ult i64 %2, 2
  %14 = zext i64 %1 to i128
  %15 = select i1 %7, i128 %14, i128 2
  %16 = zext i64 %8 to i128
  br i1 %.not110, label %._crit_edge104, label %.lr.ph103.split.us

.lr.ph103.split.us:                               ; preds = %.lr.ph103, %..loopexit_crit_edge.us
  %.068101.us = phi i64 [ %24, %..loopexit_crit_edge.us ], [ 1, %.lr.ph103 ]
  %17 = lshr i64 %.068101.us, 6
  %18 = getelementptr i64, ptr %11, i64 %17
  %19 = load i64, ptr %18, align 8, !tbaa !3
  %20 = and i64 %.068101.us, 63
  %21 = getelementptr [0 x i64], ptr @mpd_bits, i64 0, i64 %20
  %22 = load i64, ptr %21, align 8, !tbaa !3
  %23 = and i64 %22, %19
  %.not72.us = icmp eq i64 %23, 0
  br i1 %.not72.us, label %.preheader.us, label %..loopexit_crit_edge.us

..loopexit_crit_edge.us:                          ; preds = %._crit_edge.us, %.lr.ph99.split.us.us, %.lr.ph103.split.us
  %24 = add i64 %.068101.us, 2
  %.not.us = icmp ugt i64 %24, %1
  br i1 %.not.us, label %._crit_edge104, label %.lr.ph103.split.us, !llvm.loop !23

.lr.ph.us:                                        ; preds = %.preheader.us, %._crit_edge.us
  %.06498.us105 = phi i64 [ %25, %._crit_edge.us ], [ 0, %.preheader.us ]
  %.08297.us106 = phi ptr [ %.18490.us, %._crit_edge.us ], [ %6, %.preheader.us ]
  %.08396.us107 = phi ptr [ %.191.us, %._crit_edge.us ], [ %5, %.preheader.us ]
  %25 = add nuw i64 %.06498.us105, 4096
  %26 = icmp ult i64 %25, %13
  %27 = sub nuw nsw i64 %13, %.06498.us105
  %28 = shl i64 %27, 3
  %29 = select i1 %26, i64 32768, i64 %28
  %30 = getelementptr i64, ptr %49, i64 %.06498.us105
  call void @llvm.memcpy.p0.p0.i64(ptr align 8 %.08396.us107, ptr align 8 %30, i64 %29, i1 false)
  %invariant.gep = getelementptr i64, ptr %0, i64 %.06498.us105
  br label %31

31:                                               ; preds = %31, %.lr.ph.us
  %32 = phi i64 [ %.pn87.us, %.lr.ph.us ], [ %.pn.us, %31 ]
  %.092.us = phi i64 [ %56, %.lr.ph.us ], [ %46, %31 ]
  %.191.us = phi ptr [ %.08396.us107, %.lr.ph.us ], [ %.18490.us, %31 ]
  %.18490.us = phi ptr [ %.08297.us106, %.lr.ph.us ], [ %.191.us, %31 ]
  %gep = getelementptr i64, ptr %invariant.gep, i64 %32
  call void @llvm.memcpy.p0.p0.i64(ptr align 8 %.18490.us, ptr align 8 %gep, i64 %29, i1 false)
  call void @llvm.memcpy.p0.p0.i64(ptr align 8 %gep, ptr align 8 %.191.us, i64 %29, i1 false)
  %33 = and i64 %.092.us, 63
  %34 = getelementptr [0 x i64], ptr @mpd_bits, i64 0, i64 %33
  %35 = load i64, ptr %34, align 8, !tbaa !3
  %36 = lshr i64 %.092.us, 6
  %37 = getelementptr i64, ptr %11, i64 %36
  %38 = load i64, ptr %37, align 8, !tbaa !3
  %39 = or i64 %38, %35
  store i64 %39, ptr %37, align 8, !tbaa !3
  %40 = zext i64 %.092.us to i128
  %41 = mul nuw i128 %15, %40
  %42 = trunc i128 %41 to i64
  %43 = udiv i128 %41, %16
  %44 = trunc i128 %43 to i64
  %45 = mul i64 %8, %44
  %46 = sub i64 %42, %45
  %.pn.in.us = mul i64 %46, %2
  %.pn.us = lshr i64 %.pn.in.us, 1
  %.not73.us = icmp eq i64 %46, %.068101.us
  br i1 %.not73.us, label %._crit_edge.us, label %31, !llvm.loop !24

.preheader.us:                                    ; preds = %.lr.ph103.split.us
  %47 = mul i64 %.068101.us, %2
  %48 = lshr i64 %47, 1
  %49 = getelementptr i64, ptr %0, i64 %48
  %50 = zext i64 %.068101.us to i128
  %51 = mul nuw i128 %15, %50
  %52 = trunc i128 %51 to i64
  %53 = udiv i128 %51, %16
  %54 = trunc i128 %53 to i64
  %55 = mul i64 %8, %54
  %56 = sub i64 %52, %55
  %.pn.in86.us = mul i64 %56, %2
  %.pn87.us = lshr i64 %.pn.in86.us, 1
  %.06788.us = getelementptr i64, ptr %0, i64 %.pn87.us
  %.not7389.us = icmp eq i64 %56, %.068101.us
  br i1 %.not7389.us, label %.lr.ph99.split.us.us, label %.lr.ph.us

._crit_edge.us:                                   ; preds = %31
  %.067.us = getelementptr i64, ptr %0, i64 %.pn.us
  %57 = getelementptr i64, ptr %.067.us, i64 %.06498.us105
  call void @llvm.memcpy.p0.p0.i64(ptr align 8 %57, ptr align 8 %.18490.us, i64 %29, i1 false)
  %58 = load i64, ptr %18, align 8, !tbaa !3
  %59 = or i64 %58, %22
  store i64 %59, ptr %18, align 8, !tbaa !3
  br i1 %26, label %.lr.ph.us, label %..loopexit_crit_edge.us, !llvm.loop !25

.lr.ph99.split.us.us:                             ; preds = %.preheader.us, %.lr.ph99.split.us.us
  %.06498.us.us = phi i64 [ %60, %.lr.ph99.split.us.us ], [ 0, %.preheader.us ]
  %.08297.us.us = phi ptr [ %.08396.us.us, %.lr.ph99.split.us.us ], [ %6, %.preheader.us ]
  %.08396.us.us = phi ptr [ %.08297.us.us, %.lr.ph99.split.us.us ], [ %5, %.preheader.us ]
  %60 = add nuw i64 %.06498.us.us, 4096
  %61 = icmp ult i64 %60, %13
  %62 = sub nuw nsw i64 %13, %.06498.us.us
  %63 = shl i64 %62, 3
  %64 = select i1 %61, i64 32768, i64 %63
  %65 = getelementptr i64, ptr %49, i64 %.06498.us.us
  call void @llvm.memcpy.p0.p0.i64(ptr align 16 %.08396.us.us, ptr align 8 %65, i64 %64, i1 false)
  %66 = getelementptr i64, ptr %.06788.us, i64 %.06498.us.us
  tail call void @llvm.memmove.p0.p0.i64(ptr align 8 %66, ptr align 8 %65, i64 %64, i1 false)
  %67 = load i64, ptr %18, align 8, !tbaa !3
  %68 = or i64 %67, %22
  store i64 %68, ptr %18, align 8, !tbaa !3
  br i1 %61, label %.lr.ph99.split.us.us, label %..loopexit_crit_edge.us, !llvm.loop !25

._crit_edge104:                                   ; preds = %..loopexit_crit_edge.us, %.lr.ph103, %.preheader85
  %69 = load ptr, ptr @mpd_free, align 8, !tbaa !26
  tail call void %69(ptr noundef nonnull %11) #13
  br label %70

70:                                               ; preds = %4, %._crit_edge104
  %.066 = phi i32 [ 1, %._crit_edge104 ], [ 0, %4 ]
  call void @llvm.lifetime.end.p0(i64 32768, ptr nonnull %6) #13
  call void @llvm.lifetime.end.p0(i64 32768, ptr nonnull %5) #13
  ret i32 %.066
}